target datalayout = "e-m:e-p270:32:32-p271:32:32-p272:64:64-i64:64-i128:128-f80:128-n8:16:32:64-S128"
target triple = "x86_64-pc-linux-gnu"

%struct.RBasic = type { i64, i64 }
%struct.gen_ivtbl = type { %union.anon.1 }
%union.anon.1 = type { %struct.anon.2 }
%struct.anon.2 = type { i32, [1 x i64] }
%struct.anon.3 = type { ptr }

@generic_iv_tbl_ = internal global ptr null, align 8
@rb_eRactorIsolationError = external global i64, align 8
@ruby_single_main_ractor = external global ptr, align 8
@.str.41 = private unnamed_addr constant [77 x i8] c"can not access instance variables of shareable objects from non-main Ractors\00", align 1

; Function Attrs: inlinehint nounwind sspstrong willreturn memory(read) uwtable
define internal i64 @RB_FL_TEST_RAW(i64 noundef %0, i64 noundef %1) #2 {
  %3 = alloca i64, align 8
  %4 = alloca i64, align 8
  store i64 %0, ptr %3, align 8, !tbaa !14
  store i64 %1, ptr %4, align 8, !tbaa !14
  %5 = load i64, ptr %3, align 8, !tbaa !14
  %6 = inttoptr i64 %5 to ptr
  %7 = getelementptr inbounds nuw %struct.RBasic, ptr %6, i32 0, i32 0
  %8 = load i64, ptr %7, align 8, !tbaa !102
  %9 = load i64, ptr %4, align 8, !tbaa !14
  %10 = and i64 %8, %9
  ret i64 %10
}

; Function Attrs: inlinehint nounwind sspstrong uwtable
define internal zeroext i1 @rb_ractor_main_p() #6 {
  %1 = alloca i1, align 1
  %2 = load ptr, ptr @ruby_single_main_ractor, align 8, !tbaa !91
  %3 = icmp ne ptr %2, null
  br i1 %3, label %4, label %5

4:                                                ; preds = %0
  store i1 true, ptr %1, align 1
  br label %7

5:                                                ; preds = %0
  %6 = call zeroext i1 @rb_ractor_main_p_()
  store i1 %6, ptr %1, align 1
  br label %7

7:                                                ; preds = %5, %4
  %8 = load i1, ptr %1, align 1
  ret i1 %8
}

; Function Attrs: inlinehint nounwind sspstrong willreturn memory(read) uwtable
define internal i64 @RB_OBJ_FROZEN_RAW(i64 noundef %0) #2 {
  %2 = alloca i64, align 8
  store i64 %0, ptr %2, align 8, !tbaa !14
  %3 = load i64, ptr %2, align 8, !tbaa !14
  %4 = call i64 @RB_FL_TEST_RAW(i64 noundef %3, i64 noundef 2048) #29
  ret i64 %4
}

; Function Attrs: inlinehint nounwind sspstrong uwtable
define internal ptr @generic_ivtbl(i64 noundef %0, i64 noundef %1, i1 noundef zeroext %2) #6 {
  %4 = alloca i64, align 8
  %5 = alloca i64, align 8
  %6 = alloca i8, align 1
  store i64 %0, ptr %4, align 8, !tbaa !14
  store i64 %1, ptr %5, align 8, !tbaa !14
  %7 = zext i1 %2 to i8
  store i8 %7, ptr %6, align 1, !tbaa !20
  %8 = load i8, ptr %6, align 1, !tbaa !20, !range !30, !noundef !31
  %9 = trunc i8 %8 to i1
  br i1 %9, label %20, label %10

10:                                               ; preds = %3
  %11 = load i64, ptr %5, align 8, !tbaa !14
  %12 = call i32 @rb_is_instance_id(i64 noundef %11) #32
  %13 = icmp ne i32 %12, 0
  %14 = xor i1 %13, true
  %15 = xor i1 %14, true
  %16 = zext i1 %15 to i32
  %17 = sext i32 %16 to i64
  %18 = call i64 @llvm.expect.i64(i64 %17, i64 1)
  %19 = icmp ne i64 %18, 0
  br i1 %19, label %20, label %44

20:                                               ; preds = %10, %3
  %21 = load i64, ptr %4, align 8, !tbaa !14
  %22 = call i64 @RB_OBJ_FROZEN_RAW(i64 noundef %21) #29
  %23 = icmp ne i64 %22, 0
  br i1 %23, label %44, label %24

24:                                               ; preds = %20
  %25 = call zeroext i1 @rb_ractor_main_p()
  %26 = xor i1 %25, true
  %27 = xor i1 %26, true
  %28 = xor i1 %27, true
  %29 = zext i1 %28 to i32
  %30 = sext i32 %29 to i64
  %31 = call i64 @llvm.expect.i64(i64 %30, i64 0)
  %32 = icmp ne i64 %31, 0
  br i1 %32, label %33, label %44

33:                                               ; preds = %24
  %34 = load i64, ptr %4, align 8, !tbaa !14
  %35 = call zeroext i1 @rb_ractor_shareable_p(i64 noundef %34)
  %36 = xor i1 %35, true
  %37 = xor i1 %36, true
  %38 = zext i1 %37 to i32
  %39 = sext i32 %38 to i64
  %40 = call i64 @llvm.expect.i64(i64 %39, i64 0)
  %41 = icmp ne i64 %40, 0
  br i1 %41, label %42, label %44

42:                                               ; preds = %33
  %43 = load i64, ptr @rb_eRactorIsolationError, align 8, !tbaa !14
  call void (i64, ptr, ...) @rb_raise(i64 noundef %43, ptr noundef @.str.41) #31
  unreachable

44:                                               ; preds = %33, %24, %20, %10
  %45 = load ptr, ptr @generic_iv_tbl_, align 8, !tbaa !12
  ret ptr %45
}

; Function Attrs: inlinehint nounwind sspstrong uwtable
define internal ptr @generic_ivtbl_no_ractor_check(i64 noundef %0) #6 {
  %2 = alloca i64, align 8
  store i64 %0, ptr %2, align 8, !tbaa !14
  %3 = load i64, ptr %2, align 8, !tbaa !14
  %4 = call ptr @generic_ivtbl(i64 noundef %3, i64 noundef 0, i1 noundef zeroext false)
  ret ptr %4
}

; Function Attrs: nounwind sspstrong uwtable
define dso_local void @rb_mark_generic_ivar(i64 noundef %0) #0 {
  %2 = alloca i64, align 8
  %3 = alloca i64, align 8
  %4 = alloca ptr, align 8
  %5 = alloca i32, align 4
  store i64 %0, ptr %2, align 8, !tbaa !14
  call void @llvm.lifetime.start.p0(i64 8, ptr %3) #30
  %6 = load i64, ptr %2, align 8, !tbaa !14
  %7 = call ptr @generic_ivtbl_no_ractor_check(i64 noundef %6)
  %8 = load i64, ptr %2, align 8, !tbaa !14
  %9 = call i32 @rb_st_lookup(ptr noundef %7, i64 noundef %8, ptr noundef %3)
  %10 = icmp ne i32 %9, 0
  br i1 %10, label %11, label %43

11:                                               ; preds = %1
  call void @llvm.lifetime.start.p0(i64 8, ptr %4) #30
  %12 = load i64, ptr %3, align 8, !tbaa !14
  %13 = inttoptr i64 %12 to ptr
  store ptr %13, ptr %4, align 8, !tbaa !96
  %14 = load i64, ptr %2, align 8, !tbaa !14
  %15 = call zeroext i1 @rb_shape_obj_too_complex(i64 noundef %14)
  br i1 %15, label %16, label %21

16:                                               ; preds = %11
  %17 = load ptr, ptr %4, align 8, !tbaa !96
  %18 = getelementptr inbounds nuw %struct.gen_ivtbl, ptr %17, i32 0, i32 0
  %19 = getelementptr inbounds nuw %struct.anon.3, ptr %18, i32 0, i32 0
  %20 = load ptr, ptr %19, align 8, !tbaa !36
  call void @rb_mark_tbl_no_pin(ptr noundef %20)
  br label %42

21:                                               ; preds = %11
  call void @llvm.lifetime.start.p0(i64 4, ptr %5) #30
  store i32 0, ptr %5, align 4, !tbaa !51
  br label %22

22:                                               ; preds = %38, %21
  %23 = load i32, ptr %5, align 4, !tbaa !51
  %24 = load ptr, ptr %4, align 8, !tbaa !96
  %25 = getelementptr inbounds nuw %struct.gen_ivtbl, ptr %24, i32 0, i32 0
  %26 = getelementptr inbounds nuw %struct.anon.2, ptr %25, i32 0, i32 0
  %27 = load i32, ptr %26, align 8, !tbaa !36
  %28 = icmp ult i32 %23, %27
  br i1 %28, label %30, label %29

29:                                               ; preds = %22
  call void @llvm.lifetime.end.p0(i64 4, ptr %5) #30
  br label %41

30:                                               ; preds = %22
  %31 = load ptr, ptr %4, align 8, !tbaa !96
  %32 = getelementptr inbounds nuw %struct.gen_ivtbl, ptr %31, i32 0, i32 0
  %33 = getelementptr inbounds nuw %struct.anon.2, ptr %32, i32 0, i32 1
  %34 = load i32, ptr %5, align 4, !tbaa !51
  %35 = zext i32 %34 to i64
  %36 = getelementptr [1 x i64], ptr %33, i64 0, i64 %35
  %37 = load i64, ptr %36, align 8, !tbaa !36
  call void @rb_gc_mark_movable(i64 noundef %37)
  br label %38

38:                                               ; preds = %30
  %39 = load i32, ptr %5, align 4, !tbaa !51
  %40 = add i32 %39, 1
  store i32 %40, ptr %5, align 4, !tbaa !51
  br label %22, !llvm.loop !100

41:                                               ; preds = %29
  br label %42

42:                                               ; preds = %41, %16
  call void @llvm.lifetime.end.p0(i64 8, ptr %4) #30
  br label %43

43:                                               ; preds = %42, %1
  call void @llvm.lifetime.end.p0(i64 8, ptr %3) #30
  ret void
}