; Function Attrs: nounwind sspstrong uwtable
define dso_local void @rb_mark_generic_ivar(i64 noundef %0) local_unnamed_addr #0 {
  %2 = alloca i64, align 8
  call void @llvm.lifetime.start.p0(i64 8, ptr nonnull %2) #27
  %3 = tail call i32 @rb_is_instance_id(i64 noundef 0) #32
  %.not.i.i = icmp eq i32 %3, 0
  br i1 %.not.i.i, label %generic_ivtbl_no_ractor_check.exit, label %4, !prof !93

4:                                                ; preds = %1
  %5 = inttoptr i64 %0 to ptr
  %6 = load i64, ptr %5, align 8, !tbaa !28
  %7 = and i64 %6, 2048
  %.not4.i.i = icmp eq i64 %7, 0
  %8 = load ptr, ptr @ruby_single_main_ractor, align 8
  %.not.i.i.i = icmp eq ptr %8, null
  %or.cond.i.i = select i1 %.not4.i.i, i1 %.not.i.i.i, i1 false
  br i1 %or.cond.i.i, label %rb_ractor_main_p.exit.i.i, label %generic_ivtbl_no_ractor_check.exit

rb_ractor_main_p.exit.i.i:                        ; preds = %4
  %9 = tail call zeroext i1 @rb_ractor_main_p_() #27
  br i1 %9, label %generic_ivtbl_no_ractor_check.exit, label %10, !prof !70

10:                                               ; preds = %rb_ractor_main_p.exit.i.i
  %11 = tail call fastcc zeroext i1 @rb_ractor_shareable_p(i64 noundef %0)
  br i1 %11, label %12, label %generic_ivtbl_no_ractor_check.exit, !prof !93

12:                                               ; preds = %10
  %13 = load i64, ptr @rb_eRactorIsolationError, align 8, !tbaa !14
  tail call void (i64, ptr, ...) @rb_raise(i64 noundef %13, ptr noundef nonnull @.str.41) #28
  unreachable

generic_ivtbl_no_ractor_check.exit:               ; preds = %1, %4, %rb_ractor_main_p.exit.i.i, %10
  %14 = load ptr, ptr @generic_iv_tbl_, align 8, !tbaa !12
  %15 = call i32 @rb_st_lookup(ptr noundef %14, i64 noundef %0, ptr noundef nonnull %2) #27
  %.not = icmp eq i32 %15, 0
  br i1 %.not, label %.loopexit, label %16

16:                                               ; preds = %generic_ivtbl_no_ractor_check.exit
  %17 = load i64, ptr %2, align 8, !tbaa !14
  %18 = inttoptr i64 %17 to ptr
  %19 = call zeroext i1 @rb_shape_obj_too_complex(i64 noundef %0) #27
  br i1 %19, label %22, label %.preheader

.preheader:                                       ; preds = %16
  %20 = load i32, ptr %18, align 8, !tbaa !32
  %.not9 = icmp eq i32 %20, 0
  br i1 %.not9, label %.loopexit, label %.lr.ph

.lr.ph:                                           ; preds = %.preheader
  %21 = getelementptr inbounds nuw i8, ptr %18, i64 8
  br label %24

22:                                               ; preds = %16
  %23 = load ptr, ptr %18, align 8, !tbaa !32
  call void @rb_mark_tbl_no_pin(ptr noundef %23) #27
  br label %.loopexit

24:                                               ; preds = %.lr.ph, %24
  %indvars.iv = phi i64 [ 0, %.lr.ph ], [ %indvars.iv.next, %24 ]
  %25 = getelementptr [1 x i64], ptr %21, i64 0, i64 %indvars.iv
  %26 = load i64, ptr %25, align 8, !tbaa !32
  call void @rb_gc_mark_movable(i64 noundef %26) #27
  %indvars.iv.next = add nuw nsw i64 %indvars.iv, 1
  %27 = load i32, ptr %18, align 8, !tbaa !32
  %28 = zext i32 %27 to i64
  %29 = icmp samesign ult i64 %indvars.iv.next, %28
  br i1 %29, label %24, label %.loopexit, !llvm.loop !96

.loopexit:                                        ; preds = %24, %.preheader, %22, %generic_ivtbl_no_ractor_check.exit
  call void @llvm.lifetime.end.p0(i64 8, ptr nonnull %2) #27
  ret void
}